; Function Attrs: mustprogress nounwind uwtable
define hidden void @_ZN10JavaThread26platform_thread_last_frameEP11RegisterMap(ptr dead_on_unwind noalias writable sret(%class.frame) align 8 %0, ptr noundef nonnull align 8 dereferenceable(1800) %1, ptr noundef %2) local_unnamed_addr #0 align 2 {
  %4 = getelementptr inbounds i8, ptr %1, i64 1336
  %.08.i.i = load ptr, ptr %4, align 8
  %.not9.i.i = icmp eq ptr %.08.i.i, null
  br i1 %.not9.i.i, label %.loopexit, label %.lr.ph.i.i

.lr.ph.i.i:                                       ; preds = %3, %7
  %.010.i.i = phi ptr [ %.0.i.i, %7 ], [ %.08.i.i, %3 ]
  %5 = getelementptr inbounds i8, ptr %.010.i.i, i64 32
  %6 = load i32, ptr %5, align 8
  %.not7.i.not.i = icmp eq i32 %6, 0
  br i1 %.not7.i.not.i, label %7, label %_ZNK10JavaThread18is_vthread_mountedEv.exit

7:                                                ; preds = %.lr.ph.i.i
  %8 = getelementptr inbounds i8, ptr %.010.i.i, i64 8
  %.0.i.i = load ptr, ptr %8, align 8
  %.not.i.i = icmp eq ptr %.0.i.i, null
  br i1 %.not.i.i, label %.loopexit, label %.lr.ph.i.i, !llvm.loop !50

_ZNK10JavaThread18is_vthread_mountedEv.exit:      ; preds = %.lr.ph.i.i
  tail call void @_ZN10JavaThread18carrier_last_frameEP11RegisterMap(ptr dead_on_unwind writable sret(%class.frame) align 8 %0, ptr noundef nonnull align 8 dereferenceable(1800) %1, ptr noundef %2)
  br label %10

.loopexit:                                        ; preds = %7, %3
  %9 = getelementptr inbounds i8, ptr %1, i64 928
  tail call void @_ZN15JavaFrameAnchor13make_walkableEv(ptr noundef nonnull align 8 dereferenceable(24) %9) #21, !noalias !77
  tail call void @_ZN10JavaThread13pd_last_frameEv(ptr dead_on_unwind writable sret(%class.frame) align 8 %0, ptr noundef nonnull align 8 dereferenceable(1800) %1) #21
  br label %10

10:                                               ; preds = %.loopexit, %_ZNK10JavaThread18is_vthread_mountedEv.exit
  ret void
}